; Function Attrs: mustprogress uwtable
define hidden void @_ZN19preprocessor_params17updt_local_paramsERK10params_ref(ptr noundef nonnull writeonly align 4 captures(none) dereferenceable(67) %0, ptr noundef nonnull align 8 dereferenceable(8) %1) local_unnamed_addr #3 align 2 personality ptr @__gxx_personality_v0 {
  %3 = alloca %struct.smt_params_helper, align 8
  call void @llvm.lifetime.start.p0(i64 16, ptr nonnull %3) #6
  store ptr %1, ptr %3, align 8, !tbaa !3
  %4 = getelementptr inbounds nuw i8, ptr %3, i64 8
  call void @_ZN7gparams10get_moduleEPKc(ptr dead_on_unwind nonnull writable sret(%class.params_ref) align 8 %4, ptr noundef nonnull @.str.21)
  %5 = load ptr, ptr %3, align 8, !tbaa !8
  %6 = invoke noundef zeroext i1 @_ZNK10params_ref8get_boolEPKcRKS_b(ptr noundef nonnull align 8 dereferenceable(8) %5, ptr noundef nonnull @.str.22, ptr noundef nonnull align 8 dereferenceable(8) %4, i1 noundef zeroext false)
          to label %_ZNK17smt_params_helper12macro_finderEv.exit unwind label %44

_ZNK17smt_params_helper12macro_finderEv.exit:     ; preds = %2
  %7 = getelementptr inbounds nuw i8, ptr %0, i64 51
  %8 = zext i1 %6 to i8
  store i8 %8, ptr %7, align 1, !tbaa !12
  %9 = load ptr, ptr %3, align 8, !tbaa !8
  %10 = invoke noundef zeroext i1 @_ZNK10params_ref8get_boolEPKcRKS_b(ptr noundef nonnull align 8 dereferenceable(8) %9, ptr noundef nonnull @.str.23, ptr noundef nonnull align 8 dereferenceable(8) %4, i1 noundef zeroext false)
          to label %_ZNK17smt_params_helper12quasi_macrosEv.exit unwind label %44

_ZNK17smt_params_helper12quasi_macrosEv.exit:     ; preds = %_ZNK17smt_params_helper12macro_finderEv.exit
  %11 = getelementptr inbounds nuw i8, ptr %0, i64 61
  %12 = zext i1 %10 to i8
  store i8 %12, ptr %11, align 1, !tbaa !20
  %13 = load ptr, ptr %3, align 8, !tbaa !8
  %14 = invoke noundef zeroext i1 @_ZNK10params_ref8get_boolEPKcRKS_b(ptr noundef nonnull align 8 dereferenceable(8) %13, ptr noundef nonnull @.str.24, ptr noundef nonnull align 8 dereferenceable(8) %4, i1 noundef zeroext false)
          to label %_ZNK17smt_params_helper23restricted_quasi_macrosEv.exit unwind label %44

_ZNK17smt_params_helper23restricted_quasi_macrosEv.exit: ; preds = %_ZNK17smt_params_helper12quasi_macrosEv.exit
  %15 = getelementptr inbounds nuw i8, ptr %0, i64 62
  %16 = zext i1 %14 to i8
  store i8 %16, ptr %15, align 2, !tbaa !21
  %17 = load ptr, ptr %3, align 8, !tbaa !8
  %18 = invoke noundef zeroext i1 @_ZNK10params_ref8get_boolEPKcRKS_b(ptr noundef nonnull align 8 dereferenceable(8) %17, ptr noundef nonnull @.str.25, ptr noundef nonnull align 8 dereferenceable(8) %4, i1 noundef zeroext false)
          to label %_ZNK17smt_params_helper23pull_nested_quantifiersEv.exit unwind label %44

_ZNK17smt_params_helper23pull_nested_quantifiersEv.exit: ; preds = %_ZNK17smt_params_helper23restricted_quasi_macrosEv.exit
  %19 = getelementptr inbounds nuw i8, ptr %0, i64 49
  %20 = zext i1 %18 to i8
  store i8 %20, ptr %19, align 1, !tbaa !22
  %21 = load ptr, ptr %3, align 8, !tbaa !8
  %22 = invoke noundef zeroext i1 @_ZNK10params_ref8get_boolEPKcRKS_b(ptr noundef nonnull align 8 dereferenceable(8) %21, ptr noundef nonnull @.str.26, ptr noundef nonnull align 8 dereferenceable(8) %4, i1 noundef zeroext true)
          to label %_ZNK17smt_params_helper17refine_inj_axiomsEv.exit unwind label %44

_ZNK17smt_params_helper17refine_inj_axiomsEv.exit: ; preds = %_ZNK17smt_params_helper23pull_nested_quantifiersEv.exit
  %23 = getelementptr inbounds nuw i8, ptr %0, i64 55
  %24 = zext i1 %22 to i8
  store i8 %24, ptr %23, align 1, !tbaa !23
  %25 = load ptr, ptr %3, align 8, !tbaa !8
  %26 = invoke noundef zeroext i1 @_ZNK10params_ref8get_boolEPKcRKS_b(ptr noundef nonnull align 8 dereferenceable(8) %25, ptr noundef nonnull @.str.27, ptr noundef nonnull align 8 dereferenceable(8) %4, i1 noundef zeroext true)
          to label %_ZNK17smt_params_helper16propagate_valuesEv.exit unwind label %44

_ZNK17smt_params_helper16propagate_valuesEv.exit: ; preds = %_ZNK17smt_params_helper17refine_inj_axiomsEv.exit
  %27 = getelementptr inbounds nuw i8, ptr %0, i64 52
  %28 = zext i1 %26 to i8
  store i8 %28, ptr %27, align 4, !tbaa !24
  %29 = load ptr, ptr %3, align 8, !tbaa !8
  %30 = invoke noundef zeroext i1 @_ZNK10params_ref8get_boolEPKcRKS_b(ptr noundef nonnull align 8 dereferenceable(8) %29, ptr noundef nonnull @.str.28, ptr noundef nonnull align 8 dereferenceable(8) %4, i1 noundef zeroext true)
          to label %_ZNK17smt_params_helper18elim_unconstrainedEv.exit unwind label %44

_ZNK17smt_params_helper18elim_unconstrainedEv.exit: ; preds = %_ZNK17smt_params_helper16propagate_valuesEv.exit
  %31 = getelementptr inbounds nuw i8, ptr %0, i64 53
  %32 = zext i1 %30 to i8
  store i8 %32, ptr %31, align 1, !tbaa !25
  %33 = load ptr, ptr %3, align 8, !tbaa !8
  %34 = invoke noundef zeroext i1 @_ZNK10params_ref8get_boolEPKcRKS_b(ptr noundef nonnull align 8 dereferenceable(8) %33, ptr noundef nonnull @.str.29, ptr noundef nonnull align 8 dereferenceable(8) %4, i1 noundef zeroext true)
          to label %_ZNK17smt_params_helper9solve_eqsEv.exit unwind label %44

_ZNK17smt_params_helper9solve_eqsEv.exit:         ; preds = %_ZNK17smt_params_helper18elim_unconstrainedEv.exit
  %35 = getelementptr inbounds nuw i8, ptr %0, i64 54
  %36 = zext i1 %34 to i8
  store i8 %36, ptr %35, align 2, !tbaa !26
  %37 = load ptr, ptr %3, align 8, !tbaa !8
  %38 = invoke noundef i32 @_ZNK10params_ref8get_uintEPKcRKS_j(ptr noundef nonnull align 8 dereferenceable(8) %37, ptr noundef nonnull @.str.30, ptr noundef nonnull align 8 dereferenceable(8) %4, i32 noundef 0)
          to label %_ZNK17smt_params_helper10q_lift_iteEv.exit unwind label %44

_ZNK17smt_params_helper10q_lift_iteEv.exit:       ; preds = %_ZNK17smt_params_helper9solve_eqsEv.exit
  %39 = getelementptr inbounds nuw i8, ptr %0, i64 44
  store i32 %38, ptr %39, align 4, !tbaa !27
  %40 = load ptr, ptr %3, align 8, !tbaa !8
  %41 = invoke noundef zeroext i1 @_ZNK10params_ref8get_boolEPKcRKS_b(ptr noundef nonnull align 8 dereferenceable(8) %40, ptr noundef nonnull @.str.31, ptr noundef nonnull align 8 dereferenceable(8) %4, i1 noundef zeroext true)
          to label %_ZNK17smt_params_helper16bound_simplifierEv.exit unwind label %44

_ZNK17smt_params_helper16bound_simplifierEv.exit: ; preds = %_ZNK17smt_params_helper10q_lift_iteEv.exit
  %42 = getelementptr inbounds nuw i8, ptr %0, i64 66
  %43 = zext i1 %41 to i8
  store i8 %43, ptr %42, align 2, !tbaa !28
  call void @_ZN10params_refD1Ev(ptr noundef nonnull align 8 dereferenceable(8) %4) #6
  call void @llvm.lifetime.end.p0(i64 16, ptr nonnull %3) #6
  ret void

44:                                               ; preds = %_ZNK17smt_params_helper10q_lift_iteEv.exit, %_ZNK17smt_params_helper9solve_eqsEv.exit, %_ZNK17smt_params_helper18elim_unconstrainedEv.exit, %_ZNK17smt_params_helper16propagate_valuesEv.exit, %_ZNK17smt_params_helper17refine_inj_axiomsEv.exit, %_ZNK17smt_params_helper23pull_nested_quantifiersEv.exit, %_ZNK17smt_params_helper23restricted_quasi_macrosEv.exit, %_ZNK17smt_params_helper12quasi_macrosEv.exit, %_ZNK17smt_params_helper12macro_finderEv.exit, %2
  %45 = landingpad { ptr, i32 }
          cleanup
  call void @_ZN10params_refD1Ev(ptr noundef nonnull align 8 dereferenceable(8) %4) #6
  call void @llvm.lifetime.end.p0(i64 16, ptr nonnull %3) #6
  resume { ptr, i32 } %45
}